ARM GAS  /tmp/ccHGsyJi.s 			page 1


   1              		.cpu cortex-m0
   2              		.fpu softvfp
   3              		.eabi_attribute 20, 1
   4              		.eabi_attribute 21, 1
   5              		.eabi_attribute 23, 3
   6              		.eabi_attribute 24, 1
   7              		.eabi_attribute 25, 1
   8              		.eabi_attribute 26, 1
   9              		.eabi_attribute 30, 6
  10              		.eabi_attribute 34, 0
  11              		.eabi_attribute 18, 4
  12              		.code	16
  13              		.file	"cyfitter_cfg.c"
  14              		.text
  15              	.Ltext0:
  16              		.cfi_sections	.debug_frame
  17              		.section	.text.CYMEMZERO,"ax",%progbits
  18              		.align	2
  19              		.code	16
  20              		.thumb_func
  21              		.type	CYMEMZERO, %function
  22              	CYMEMZERO:
  23              	.LFB0:
  24              		.file 1 "cyfitter_cfg.c"
   1:cyfitter_cfg.c **** /*******************************************************************************
   2:cyfitter_cfg.c **** * FILENAME: cyfitter_cfg.c
   3:cyfitter_cfg.c **** * 
   4:cyfitter_cfg.c **** * PSoC Creator  3.2
   5:cyfitter_cfg.c **** *
   6:cyfitter_cfg.c **** * DESCRIPTION:
   7:cyfitter_cfg.c **** * This file contains device initialization code.
   8:cyfitter_cfg.c **** * Except for the user defined sections in CyClockStartupError(), this file should not be modified.
   9:cyfitter_cfg.c **** * This file is automatically generated by PSoC Creator.
  10:cyfitter_cfg.c **** *
  11:cyfitter_cfg.c **** ********************************************************************************
  12:cyfitter_cfg.c **** * Copyright (c) 2007-2015 Cypress Semiconductor.  All rights reserved.
  13:cyfitter_cfg.c **** * You may use this file only in accordance with the license, terms, conditions, 
  14:cyfitter_cfg.c **** * disclaimers, and limitations in the end user license agreement accompanying 
  15:cyfitter_cfg.c **** * the software package with which this file was provided.
  16:cyfitter_cfg.c **** ********************************************************************************/
  17:cyfitter_cfg.c **** 
  18:cyfitter_cfg.c **** #include <string.h>
  19:cyfitter_cfg.c **** #include "cytypes.h"
  20:cyfitter_cfg.c **** #include "cydevice_trm.h"
  21:cyfitter_cfg.c **** #include "cyfitter.h"
  22:cyfitter_cfg.c **** #include "CyLib.h"
  23:cyfitter_cfg.c **** #include "cyfitter_cfg.h"
  24:cyfitter_cfg.c **** 
  25:cyfitter_cfg.c **** 
  26:cyfitter_cfg.c **** #if defined(__GNUC__) || defined(__ARMCC_VERSION)
  27:cyfitter_cfg.c ****     #define CYPACKED 
  28:cyfitter_cfg.c ****     #define CYPACKED_ATTR __attribute__ ((packed))
  29:cyfitter_cfg.c ****     #define CYALIGNED __attribute__ ((aligned))
  30:cyfitter_cfg.c ****     #define CY_CFG_UNUSED __attribute__ ((unused))
  31:cyfitter_cfg.c ****     #define CY_CFG_SECTION __attribute__ ((section(".psocinit")))
  32:cyfitter_cfg.c ****     
  33:cyfitter_cfg.c ****     #if defined(__ARMCC_VERSION)
ARM GAS  /tmp/ccHGsyJi.s 			page 2


  34:cyfitter_cfg.c ****         #define CY_CFG_MEMORY_BARRIER() __memory_changed()
  35:cyfitter_cfg.c ****     #else
  36:cyfitter_cfg.c ****         #define CY_CFG_MEMORY_BARRIER() __sync_synchronize()
  37:cyfitter_cfg.c ****     #endif
  38:cyfitter_cfg.c ****     
  39:cyfitter_cfg.c **** #elif defined(__ICCARM__)
  40:cyfitter_cfg.c ****     #include <intrinsics.h>
  41:cyfitter_cfg.c **** 
  42:cyfitter_cfg.c ****     #define CYPACKED __packed
  43:cyfitter_cfg.c ****     #define CYPACKED_ATTR 
  44:cyfitter_cfg.c ****     #define CYALIGNED _Pragma("data_alignment=4")
  45:cyfitter_cfg.c ****     #define CY_CFG_UNUSED _Pragma("diag_suppress=Pe177")
  46:cyfitter_cfg.c ****     #define CY_CFG_SECTION _Pragma("location=\".psocinit\"")
  47:cyfitter_cfg.c ****     
  48:cyfitter_cfg.c ****     #define CY_CFG_MEMORY_BARRIER() __DMB()
  49:cyfitter_cfg.c ****     
  50:cyfitter_cfg.c **** #else
  51:cyfitter_cfg.c ****     #error Unsupported toolchain
  52:cyfitter_cfg.c **** #endif
  53:cyfitter_cfg.c **** 
  54:cyfitter_cfg.c **** 
  55:cyfitter_cfg.c **** CY_CFG_UNUSED
  56:cyfitter_cfg.c **** static void CYMEMZERO(void *s, size_t n);
  57:cyfitter_cfg.c **** CY_CFG_UNUSED
  58:cyfitter_cfg.c **** static void CYMEMZERO(void *s, size_t n)
  59:cyfitter_cfg.c **** {
  25              		.loc 1 59 0
  26              		.cfi_startproc
  27 0000 80B5     		push	{r7, lr}
  28              		.cfi_def_cfa_offset 8
  29              		.cfi_offset 7, -8
  30              		.cfi_offset 14, -4
  31 0002 82B0     		sub	sp, sp, #8
  32              		.cfi_def_cfa_offset 16
  33 0004 00AF     		add	r7, sp, #0
  34              		.cfi_def_cfa_register 7
  35 0006 7860     		str	r0, [r7, #4]
  36 0008 3960     		str	r1, [r7]
  60:cyfitter_cfg.c **** 	(void)memset(s, 0, n);
  37              		.loc 1 60 0
  38 000a 7A68     		ldr	r2, [r7, #4]
  39 000c 3B68     		ldr	r3, [r7]
  40 000e 101C     		mov	r0, r2
  41 0010 0021     		mov	r1, #0
  42 0012 1A1C     		mov	r2, r3
  43 0014 FFF7FEFF 		bl	memset
  61:cyfitter_cfg.c **** }
  44              		.loc 1 61 0
  45 0018 BD46     		mov	sp, r7
  46 001a 02B0     		add	sp, sp, #8
  47              		@ sp needed
  48 001c 80BD     		pop	{r7, pc}
  49              		.cfi_endproc
  50              	.LFE0:
  51              		.size	CYMEMZERO, .-CYMEMZERO
  52 001e C046     		.section	.text.CYCONFIGCPY,"ax",%progbits
  53              		.align	2
ARM GAS  /tmp/ccHGsyJi.s 			page 3


  54              		.code	16
  55              		.thumb_func
  56              		.type	CYCONFIGCPY, %function
  57              	CYCONFIGCPY:
  58              	.LFB1:
  62:cyfitter_cfg.c **** CY_CFG_UNUSED
  63:cyfitter_cfg.c **** static void CYCONFIGCPY(void *dest, const void *src, size_t n);
  64:cyfitter_cfg.c **** CY_CFG_UNUSED
  65:cyfitter_cfg.c **** static void CYCONFIGCPY(void *dest, const void *src, size_t n)
  66:cyfitter_cfg.c **** {
  59              		.loc 1 66 0
  60              		.cfi_startproc
  61 0000 80B5     		push	{r7, lr}
  62              		.cfi_def_cfa_offset 8
  63              		.cfi_offset 7, -8
  64              		.cfi_offset 14, -4
  65 0002 84B0     		sub	sp, sp, #16
  66              		.cfi_def_cfa_offset 24
  67 0004 00AF     		add	r7, sp, #0
  68              		.cfi_def_cfa_register 7
  69 0006 F860     		str	r0, [r7, #12]
  70 0008 B960     		str	r1, [r7, #8]
  71 000a 7A60     		str	r2, [r7, #4]
  67:cyfitter_cfg.c **** 	(void)memcpy(dest, src, n);
  72              		.loc 1 67 0
  73 000c F968     		ldr	r1, [r7, #12]
  74 000e BA68     		ldr	r2, [r7, #8]
  75 0010 7B68     		ldr	r3, [r7, #4]
  76 0012 081C     		mov	r0, r1
  77 0014 111C     		mov	r1, r2
  78 0016 1A1C     		mov	r2, r3
  79 0018 FFF7FEFF 		bl	memcpy
  68:cyfitter_cfg.c **** }
  80              		.loc 1 68 0
  81 001c BD46     		mov	sp, r7
  82 001e 04B0     		add	sp, sp, #16
  83              		@ sp needed
  84 0020 80BD     		pop	{r7, pc}
  85              		.cfi_endproc
  86              	.LFE1:
  87              		.size	CYCONFIGCPY, .-CYCONFIGCPY
  88 0022 C046     		.section	.text.CYCONFIGCPYCODE,"ax",%progbits
  89              		.align	2
  90              		.code	16
  91              		.thumb_func
  92              		.type	CYCONFIGCPYCODE, %function
  93              	CYCONFIGCPYCODE:
  94              	.LFB2:
  69:cyfitter_cfg.c **** CY_CFG_UNUSED
  70:cyfitter_cfg.c **** static void CYCONFIGCPYCODE(void *dest, const void *src, size_t n);
  71:cyfitter_cfg.c **** CY_CFG_UNUSED
  72:cyfitter_cfg.c **** static void CYCONFIGCPYCODE(void *dest, const void *src, size_t n)
  73:cyfitter_cfg.c **** {
  95              		.loc 1 73 0
  96              		.cfi_startproc
  97 0000 80B5     		push	{r7, lr}
  98              		.cfi_def_cfa_offset 8
ARM GAS  /tmp/ccHGsyJi.s 			page 4


  99              		.cfi_offset 7, -8
 100              		.cfi_offset 14, -4
 101 0002 84B0     		sub	sp, sp, #16
 102              		.cfi_def_cfa_offset 24
 103 0004 00AF     		add	r7, sp, #0
 104              		.cfi_def_cfa_register 7
 105 0006 F860     		str	r0, [r7, #12]
 106 0008 B960     		str	r1, [r7, #8]
 107 000a 7A60     		str	r2, [r7, #4]
  74:cyfitter_cfg.c **** 	(void)memcpy(dest, src, n);
 108              		.loc 1 74 0
 109 000c F968     		ldr	r1, [r7, #12]
 110 000e BA68     		ldr	r2, [r7, #8]
 111 0010 7B68     		ldr	r3, [r7, #4]
 112 0012 081C     		mov	r0, r1
 113 0014 111C     		mov	r1, r2
 114 0016 1A1C     		mov	r2, r3
 115 0018 FFF7FEFF 		bl	memcpy
  75:cyfitter_cfg.c **** }
 116              		.loc 1 75 0
 117 001c BD46     		mov	sp, r7
 118 001e 04B0     		add	sp, sp, #16
 119              		@ sp needed
 120 0020 80BD     		pop	{r7, pc}
 121              		.cfi_endproc
 122              	.LFE2:
 123              		.size	CYCONFIGCPYCODE, .-CYCONFIGCPYCODE
 124 0022 C046     		.section	.text.cfg_write_bytes32,"ax",%progbits
 125              		.align	2
 126              		.code	16
 127              		.thumb_func
 128              		.type	cfg_write_bytes32, %function
 129              	cfg_write_bytes32:
 130              	.LFB3:
  76:cyfitter_cfg.c **** 
  77:cyfitter_cfg.c **** 
  78:cyfitter_cfg.c **** 
  79:cyfitter_cfg.c **** /* Clock startup error codes                                                   */
  80:cyfitter_cfg.c **** #define CYCLOCKSTART_NO_ERROR    0u
  81:cyfitter_cfg.c **** #define CYCLOCKSTART_XTAL_ERROR  1u
  82:cyfitter_cfg.c **** #define CYCLOCKSTART_32KHZ_ERROR 2u
  83:cyfitter_cfg.c **** #define CYCLOCKSTART_PLL_ERROR   3u
  84:cyfitter_cfg.c **** 
  85:cyfitter_cfg.c **** #ifdef CY_NEED_CYCLOCKSTARTUPERROR
  86:cyfitter_cfg.c **** /*******************************************************************************
  87:cyfitter_cfg.c **** * Function Name: CyClockStartupError
  88:cyfitter_cfg.c **** ********************************************************************************
  89:cyfitter_cfg.c **** * Summary:
  90:cyfitter_cfg.c **** *  If an error is encountered during clock configuration (crystal startup error,
  91:cyfitter_cfg.c **** *  PLL lock error, etc.), the system will end up here.  Unless reimplemented by
  92:cyfitter_cfg.c **** *  the customer, this function will stop in an infinite loop.
  93:cyfitter_cfg.c **** *
  94:cyfitter_cfg.c **** * Parameters:
  95:cyfitter_cfg.c **** *   void
  96:cyfitter_cfg.c **** *
  97:cyfitter_cfg.c **** * Return:
  98:cyfitter_cfg.c **** *   void
ARM GAS  /tmp/ccHGsyJi.s 			page 5


  99:cyfitter_cfg.c **** *
 100:cyfitter_cfg.c **** *******************************************************************************/
 101:cyfitter_cfg.c **** CY_CFG_UNUSED
 102:cyfitter_cfg.c **** static void CyClockStartupError(uint8 errorCode);
 103:cyfitter_cfg.c **** CY_CFG_UNUSED
 104:cyfitter_cfg.c **** static void CyClockStartupError(uint8 errorCode)
 105:cyfitter_cfg.c **** {
 106:cyfitter_cfg.c ****     /* To remove the compiler warning if errorCode not used.                */
 107:cyfitter_cfg.c ****     errorCode = errorCode;
 108:cyfitter_cfg.c **** 
 109:cyfitter_cfg.c ****     /* `#START CyClockStartupError` */
 110:cyfitter_cfg.c **** 
 111:cyfitter_cfg.c ****     /* If we have a clock startup error (bad MHz crystal, PLL lock, etc.),  */
 112:cyfitter_cfg.c ****     /* we will end up here to allow the customer to implement something to  */
 113:cyfitter_cfg.c ****     /* deal with the clock condition.                                       */
 114:cyfitter_cfg.c **** 
 115:cyfitter_cfg.c ****     /* `#END` */
 116:cyfitter_cfg.c **** 
 117:cyfitter_cfg.c ****     /* If nothing else, stop here since the clocks have not started         */
 118:cyfitter_cfg.c ****     /* correctly.                                                           */
 119:cyfitter_cfg.c ****     while(1) {}
 120:cyfitter_cfg.c **** }
 121:cyfitter_cfg.c **** #endif
 122:cyfitter_cfg.c **** 
 123:cyfitter_cfg.c **** #define CY_CFG_BASE_ADDR_COUNT 3u
 124:cyfitter_cfg.c **** CYPACKED typedef struct
 125:cyfitter_cfg.c **** {
 126:cyfitter_cfg.c **** 	uint8 offset;
 127:cyfitter_cfg.c **** 	uint8 value;
 128:cyfitter_cfg.c **** } CYPACKED_ATTR cy_cfg_addrvalue_t;
 129:cyfitter_cfg.c **** 
 130:cyfitter_cfg.c **** 
 131:cyfitter_cfg.c **** 
 132:cyfitter_cfg.c **** /*******************************************************************************
 133:cyfitter_cfg.c **** * Function Name: cfg_write_bytes32
 134:cyfitter_cfg.c **** ********************************************************************************
 135:cyfitter_cfg.c **** * Summary:
 136:cyfitter_cfg.c **** *  This function is used for setting up the chip configuration areas that
 137:cyfitter_cfg.c **** *  contain relatively sparse data.
 138:cyfitter_cfg.c **** *
 139:cyfitter_cfg.c **** * Parameters:
 140:cyfitter_cfg.c **** *   void
 141:cyfitter_cfg.c **** *
 142:cyfitter_cfg.c **** * Return:
 143:cyfitter_cfg.c **** *   void
 144:cyfitter_cfg.c **** *
 145:cyfitter_cfg.c **** *******************************************************************************/
 146:cyfitter_cfg.c **** static void cfg_write_bytes32(const uint32 addr_table[], const cy_cfg_addrvalue_t data_table[]);
 147:cyfitter_cfg.c **** static void cfg_write_bytes32(const uint32 addr_table[], const cy_cfg_addrvalue_t data_table[])
 148:cyfitter_cfg.c **** {
 131              		.loc 1 148 0
 132              		.cfi_startproc
 133 0000 80B5     		push	{r7, lr}
 134              		.cfi_def_cfa_offset 8
 135              		.cfi_offset 7, -8
 136              		.cfi_offset 14, -4
 137 0002 86B0     		sub	sp, sp, #24
ARM GAS  /tmp/ccHGsyJi.s 			page 6


 138              		.cfi_def_cfa_offset 32
 139 0004 00AF     		add	r7, sp, #0
 140              		.cfi_def_cfa_register 7
 141 0006 7860     		str	r0, [r7, #4]
 142 0008 3960     		str	r1, [r7]
 149:cyfitter_cfg.c **** 	/* For 32-bit little-endian architectures */
 150:cyfitter_cfg.c **** 	uint32 i, j = 0u;
 143              		.loc 1 150 0
 144 000a 0023     		mov	r3, #0
 145 000c 3B61     		str	r3, [r7, #16]
 151:cyfitter_cfg.c **** 	for (i = 0u; i < CY_CFG_BASE_ADDR_COUNT; i++)
 146              		.loc 1 151 0
 147 000e 0023     		mov	r3, #0
 148 0010 7B61     		str	r3, [r7, #20]
 149 0012 2EE0     		b	.L5
 150              	.L8:
 151              	.LBB2:
 152:cyfitter_cfg.c **** 	{
 153:cyfitter_cfg.c **** 		uint32 baseAddr = addr_table[i];
 152              		.loc 1 153 0
 153 0014 7B69     		ldr	r3, [r7, #20]
 154 0016 9B00     		lsl	r3, r3, #2
 155 0018 7A68     		ldr	r2, [r7, #4]
 156 001a D318     		add	r3, r2, r3
 157 001c 1B68     		ldr	r3, [r3]
 158 001e BB60     		str	r3, [r7, #8]
 154:cyfitter_cfg.c **** 		uint8 count = (uint8)baseAddr;
 159              		.loc 1 154 0
 160 0020 3B1C     		mov	r3, r7
 161 0022 0F33     		add	r3, r3, #15
 162 0024 BA68     		ldr	r2, [r7, #8]
 163 0026 1A70     		strb	r2, [r3]
 155:cyfitter_cfg.c **** 		baseAddr &= 0xFFFFFF00u;
 164              		.loc 1 155 0
 165 0028 BB68     		ldr	r3, [r7, #8]
 166 002a FF22     		mov	r2, #255
 167 002c 9343     		bic	r3, r2
 168 002e BB60     		str	r3, [r7, #8]
 156:cyfitter_cfg.c **** 		while (count != 0u)
 169              		.loc 1 156 0
 170 0030 17E0     		b	.L6
 171              	.L7:
 157:cyfitter_cfg.c **** 		{
 158:cyfitter_cfg.c **** 			CY_SET_XTND_REG8((void CYFAR *)(baseAddr + data_table[j].offset), data_table[j].value);
 172              		.loc 1 158 0
 173 0032 3B69     		ldr	r3, [r7, #16]
 174 0034 5B00     		lsl	r3, r3, #1
 175 0036 3A68     		ldr	r2, [r7]
 176 0038 D318     		add	r3, r2, r3
 177 003a 1B78     		ldrb	r3, [r3]
 178 003c 1A1C     		mov	r2, r3
 179 003e BB68     		ldr	r3, [r7, #8]
 180 0040 D318     		add	r3, r2, r3
 181 0042 3A69     		ldr	r2, [r7, #16]
 182 0044 5200     		lsl	r2, r2, #1
 183 0046 3968     		ldr	r1, [r7]
 184 0048 8A18     		add	r2, r1, r2
ARM GAS  /tmp/ccHGsyJi.s 			page 7


 185 004a 5278     		ldrb	r2, [r2, #1]
 186 004c 1A70     		strb	r2, [r3]
 159:cyfitter_cfg.c **** 			j++;
 187              		.loc 1 159 0
 188 004e 3B69     		ldr	r3, [r7, #16]
 189 0050 0133     		add	r3, r3, #1
 190 0052 3B61     		str	r3, [r7, #16]
 160:cyfitter_cfg.c **** 			count--;
 191              		.loc 1 160 0
 192 0054 3B1C     		mov	r3, r7
 193 0056 0F33     		add	r3, r3, #15
 194 0058 1A78     		ldrb	r2, [r3]
 195 005a 3B1C     		mov	r3, r7
 196 005c 0F33     		add	r3, r3, #15
 197 005e 013A     		sub	r2, r2, #1
 198 0060 1A70     		strb	r2, [r3]
 199              	.L6:
 156:cyfitter_cfg.c **** 		while (count != 0u)
 200              		.loc 1 156 0 discriminator 1
 201 0062 3B1C     		mov	r3, r7
 202 0064 0F33     		add	r3, r3, #15
 203 0066 1B78     		ldrb	r3, [r3]
 204 0068 002B     		cmp	r3, #0
 205 006a E2D1     		bne	.L7
 206              	.LBE2:
 151:cyfitter_cfg.c **** 	for (i = 0u; i < CY_CFG_BASE_ADDR_COUNT; i++)
 207              		.loc 1 151 0
 208 006c 7B69     		ldr	r3, [r7, #20]
 209 006e 0133     		add	r3, r3, #1
 210 0070 7B61     		str	r3, [r7, #20]
 211              	.L5:
 151:cyfitter_cfg.c **** 	for (i = 0u; i < CY_CFG_BASE_ADDR_COUNT; i++)
 212              		.loc 1 151 0 is_stmt 0 discriminator 1
 213 0072 7B69     		ldr	r3, [r7, #20]
 214 0074 022B     		cmp	r3, #2
 215 0076 CDD9     		bls	.L8
 161:cyfitter_cfg.c **** 		}
 162:cyfitter_cfg.c **** 	}
 163:cyfitter_cfg.c **** }
 216              		.loc 1 163 0 is_stmt 1
 217 0078 BD46     		mov	sp, r7
 218 007a 06B0     		add	sp, sp, #24
 219              		@ sp needed
 220 007c 80BD     		pop	{r7, pc}
 221              		.cfi_endproc
 222              	.LFE3:
 223              		.size	cfg_write_bytes32, .-cfg_write_bytes32
 224 007e C046     		.section	.psocinit,"ax",%progbits
 225              		.align	2
 226              		.code	16
 227              		.thumb_func
 228              		.type	ClockSetup, %function
 229              	ClockSetup:
 230              	.LFB4:
 164:cyfitter_cfg.c **** 
 165:cyfitter_cfg.c **** 
 166:cyfitter_cfg.c **** /*******************************************************************************
ARM GAS  /tmp/ccHGsyJi.s 			page 8


 167:cyfitter_cfg.c **** * Function Name: ClockSetup
 168:cyfitter_cfg.c **** ********************************************************************************
 169:cyfitter_cfg.c **** *
 170:cyfitter_cfg.c **** * Summary:
 171:cyfitter_cfg.c **** *   Performs the initialization of all of the clocks in the device based on the
 172:cyfitter_cfg.c **** *   settings in the Clock tab of the DWR.  This includes enabling the requested
 173:cyfitter_cfg.c **** *   clocks and setting the necessary dividers to produce the desired frequency. 
 174:cyfitter_cfg.c **** *
 175:cyfitter_cfg.c **** * Parameters:
 176:cyfitter_cfg.c **** *   void
 177:cyfitter_cfg.c **** *
 178:cyfitter_cfg.c **** * Return:
 179:cyfitter_cfg.c **** *   void
 180:cyfitter_cfg.c **** *
 181:cyfitter_cfg.c **** *******************************************************************************/
 182:cyfitter_cfg.c **** static void ClockSetup(void);
 183:cyfitter_cfg.c **** CY_CFG_SECTION
 184:cyfitter_cfg.c **** static void ClockSetup(void)
 185:cyfitter_cfg.c **** {
 231              		.loc 1 185 0
 232              		.cfi_startproc
 233 0000 80B5     		push	{r7, lr}
 234              		.cfi_def_cfa_offset 8
 235              		.cfi_offset 7, -8
 236              		.cfi_offset 14, -4
 237 0002 00AF     		add	r7, sp, #0
 238              		.cfi_def_cfa_register 7
 186:cyfitter_cfg.c **** 	/* Enable HALF_EN before trimming for the flash accelerator. */
 187:cyfitter_cfg.c **** 	CY_SET_REG32((void CYXDATA *)(CYREG_CLK_SELECT), (CY_GET_REG32((void *)CYREG_CLK_SELECT) | 0x00040
 239              		.loc 1 187 0
 240 0004 104B     		ldr	r3, .L10
 241 0006 104A     		ldr	r2, .L10
 242 0008 1268     		ldr	r2, [r2]
 243 000a 8021     		mov	r1, #128
 244 000c C902     		lsl	r1, r1, #11
 245 000e 0A43     		orr	r2, r1
 246 0010 1A60     		str	r2, [r3]
 188:cyfitter_cfg.c **** 
 189:cyfitter_cfg.c **** 	/* Setup and trim IMO based on desired frequency. */
 190:cyfitter_cfg.c **** 	CySysClkWriteImoFreq(3u);
 247              		.loc 1 190 0
 248 0012 0320     		mov	r0, #3
 249 0014 FFF7FEFF 		bl	CySysClkWriteImoFreq
 191:cyfitter_cfg.c **** 
 192:cyfitter_cfg.c **** 	/* Disable HALF_EN since it is not required at this IMO frequency. */
 193:cyfitter_cfg.c **** 	CY_SET_REG32((void CYXDATA *)(CYREG_CLK_SELECT), (CY_GET_REG32((void *)CYREG_CLK_SELECT) & 0xFFFBF
 250              		.loc 1 193 0
 251 0018 0B4B     		ldr	r3, .L10
 252 001a 0B4A     		ldr	r2, .L10
 253 001c 1168     		ldr	r1, [r2]
 254 001e 0B4A     		ldr	r2, .L10+4
 255 0020 0A40     		and	r2, r1
 256 0022 1A60     		str	r2, [r3]
 194:cyfitter_cfg.c **** 	/* CYDEV_CLK_ILO_CONFIG Starting address: CYDEV_CLK_ILO_CONFIG */
 195:cyfitter_cfg.c **** 	CY_SET_XTND_REG32((void CYFAR *)(CYREG_CLK_ILO_CONFIG), 0x80000006u);
 257              		.loc 1 195 0
 258 0024 0A4B     		ldr	r3, .L10+8
ARM GAS  /tmp/ccHGsyJi.s 			page 9


 259 0026 0B4A     		ldr	r2, .L10+12
 260 0028 1A60     		str	r2, [r3]
 196:cyfitter_cfg.c **** 
 197:cyfitter_cfg.c **** 
 198:cyfitter_cfg.c **** 	/* CYDEV_CLK_SELECT00 Starting address: CYDEV_CLK_SELECT00 */
 199:cyfitter_cfg.c **** 	CY_SET_XTND_REG32((void CYFAR *)(CYREG_CLK_SELECT08), 0x00000010u);
 261              		.loc 1 199 0
 262 002a 0B4B     		ldr	r3, .L10+16
 263 002c 1022     		mov	r2, #16
 264 002e 1A60     		str	r2, [r3]
 200:cyfitter_cfg.c **** 
 201:cyfitter_cfg.c **** 	/* CYDEV_CLK_IMO_CONFIG Starting address: CYDEV_CLK_IMO_CONFIG */
 202:cyfitter_cfg.c **** 	CY_SET_XTND_REG32((void CYFAR *)(CYREG_CLK_IMO_CONFIG), 0x80000000u);
 265              		.loc 1 202 0
 266 0030 0A4B     		ldr	r3, .L10+20
 267 0032 8022     		mov	r2, #128
 268 0034 1206     		lsl	r2, r2, #24
 269 0036 1A60     		str	r2, [r3]
 203:cyfitter_cfg.c **** 
 204:cyfitter_cfg.c **** 	/* CYDEV_CLK_DIVIDER_A00 Starting address: CYDEV_CLK_DIVIDER_A00 */
 205:cyfitter_cfg.c **** 	CY_SET_XTND_REG32((void CYFAR *)(CYREG_CLK_DIVIDER_A00), 0x80000BB7u);
 270              		.loc 1 205 0
 271 0038 094B     		ldr	r3, .L10+24
 272 003a 0A4A     		ldr	r2, .L10+28
 273 003c 1A60     		str	r2, [r3]
 206:cyfitter_cfg.c **** 
 207:cyfitter_cfg.c **** 	CY_SET_XTND_REG32((void CYFAR *)(CYREG_WDT_CONFIG), 0x00000000u);
 274              		.loc 1 207 0
 275 003e 0A4B     		ldr	r3, .L10+32
 276 0040 0022     		mov	r2, #0
 277 0042 1A60     		str	r2, [r3]
 208:cyfitter_cfg.c **** }
 278              		.loc 1 208 0
 279 0044 BD46     		mov	sp, r7
 280              		@ sp needed
 281 0046 80BD     		pop	{r7, pc}
 282              	.L11:
 283              		.align	2
 284              	.L10:
 285 0048 00010B40 		.word	1074462976
 286 004c FFFFFBFF 		.word	-262145
 287 0050 04010B40 		.word	1074462980
 288 0054 06000080 		.word	-2147483642
 289 0058 20020240 		.word	1073873440
 290 005c 08010B40 		.word	1074462984
 291 0060 00000240 		.word	1073872896
 292 0064 B70B0080 		.word	-2147480649
 293 0068 0C020B40 		.word	1074463244
 294              		.cfi_endproc
 295              	.LFE4:
 296              		.size	ClockSetup, .-ClockSetup
 297              		.section	.text.AnalogSetDefault,"ax",%progbits
 298              		.align	2
 299              		.code	16
 300              		.thumb_func
 301              		.type	AnalogSetDefault, %function
 302              	AnalogSetDefault:
ARM GAS  /tmp/ccHGsyJi.s 			page 10


 303              	.LFB5:
 209:cyfitter_cfg.c **** 
 210:cyfitter_cfg.c **** 
 211:cyfitter_cfg.c **** /* Analog API Functions */
 212:cyfitter_cfg.c **** 
 213:cyfitter_cfg.c **** 
 214:cyfitter_cfg.c **** /*******************************************************************************
 215:cyfitter_cfg.c **** * Function Name: AnalogSetDefault
 216:cyfitter_cfg.c **** ********************************************************************************
 217:cyfitter_cfg.c **** *
 218:cyfitter_cfg.c **** * Summary:
 219:cyfitter_cfg.c **** *  Sets up the analog portions of the chip to default values based on chip
 220:cyfitter_cfg.c **** *  configuration options from the project.
 221:cyfitter_cfg.c **** *
 222:cyfitter_cfg.c **** * Parameters:
 223:cyfitter_cfg.c **** *  void
 224:cyfitter_cfg.c **** *
 225:cyfitter_cfg.c **** * Return:
 226:cyfitter_cfg.c **** *  void
 227:cyfitter_cfg.c **** *
 228:cyfitter_cfg.c **** *******************************************************************************/
 229:cyfitter_cfg.c **** static void AnalogSetDefault(void);
 230:cyfitter_cfg.c **** static void AnalogSetDefault(void)
 231:cyfitter_cfg.c **** {
 304              		.loc 1 231 0
 305              		.cfi_startproc
 306 0000 80B5     		push	{r7, lr}
 307              		.cfi_def_cfa_offset 8
 308              		.cfi_offset 7, -8
 309              		.cfi_offset 14, -4
 310 0002 00AF     		add	r7, sp, #0
 311              		.cfi_def_cfa_register 7
 232:cyfitter_cfg.c **** }
 312              		.loc 1 232 0
 313 0004 BD46     		mov	sp, r7
 314              		@ sp needed
 315 0006 80BD     		pop	{r7, pc}
 316              		.cfi_endproc
 317              	.LFE5:
 318              		.size	AnalogSetDefault, .-AnalogSetDefault
 319              		.section	.psocinit
 320              		.align	2
 321              		.global	cyfitter_cfg
 322              		.code	16
 323              		.thumb_func
 324              		.type	cyfitter_cfg, %function
 325              	cyfitter_cfg:
 326              	.LFB6:
 233:cyfitter_cfg.c **** 
 234:cyfitter_cfg.c **** #define CY_AMUX_UNUSED CYREG_CM0_ROM_DWT
 235:cyfitter_cfg.c **** 
 236:cyfitter_cfg.c **** 
 237:cyfitter_cfg.c **** /*******************************************************************************
 238:cyfitter_cfg.c **** * Function Name: cyfitter_cfg
 239:cyfitter_cfg.c **** ********************************************************************************
 240:cyfitter_cfg.c **** * Summary:
 241:cyfitter_cfg.c **** *  This function is called by the start-up code for the selected device. It
ARM GAS  /tmp/ccHGsyJi.s 			page 11


 242:cyfitter_cfg.c **** *  performs all of the necessary device configuration based on the design
 243:cyfitter_cfg.c **** *  settings.  This includes settings from the Design Wide Resources (DWR) such
 244:cyfitter_cfg.c **** *  as Clocks and Pins as well as any component configuration that is necessary.
 245:cyfitter_cfg.c **** *
 246:cyfitter_cfg.c **** * Parameters:  
 247:cyfitter_cfg.c **** *   void
 248:cyfitter_cfg.c **** *
 249:cyfitter_cfg.c **** * Return:
 250:cyfitter_cfg.c **** *   void
 251:cyfitter_cfg.c **** *
 252:cyfitter_cfg.c **** *******************************************************************************/
 253:cyfitter_cfg.c **** CY_CFG_SECTION
 254:cyfitter_cfg.c **** void cyfitter_cfg(void)
 255:cyfitter_cfg.c **** {
 327              		.loc 1 255 0
 328              		.cfi_startproc
 329 006c 80B5     		push	{r7, lr}
 330              		.cfi_def_cfa_offset 8
 331              		.cfi_offset 7, -8
 332              		.cfi_offset 14, -4
 333 006e 82B0     		sub	sp, sp, #8
 334              		.cfi_def_cfa_offset 16
 335 0070 00AF     		add	r7, sp, #0
 336              		.cfi_def_cfa_register 7
 256:cyfitter_cfg.c **** 	/* Disable interrupts by default. Let user enable if/when they want. */
 257:cyfitter_cfg.c **** 	CyGlobalIntDisable;
 337              		.loc 1 257 0
 338              	@ 257 "cyfitter_cfg.c" 1
 339 0072 72B6     		CPSID   i
 340              	@ 0 "" 2
 341              		.code	16
 342              	.LBB3:
 258:cyfitter_cfg.c **** 
 259:cyfitter_cfg.c **** 	{
 260:cyfitter_cfg.c **** 		static const uint32 CYCODE cy_cfg_addr_table[] = {
 261:cyfitter_cfg.c **** 			0x400F3301u, /* Base address: 0x400F3300 Count: 1 */
 262:cyfitter_cfg.c **** 			0x400F4103u, /* Base address: 0x400F4100 Count: 3 */
 263:cyfitter_cfg.c **** 			0x400F4304u, /* Base address: 0x400F4300 Count: 4 */
 264:cyfitter_cfg.c **** 		};
 265:cyfitter_cfg.c **** 
 266:cyfitter_cfg.c **** 		static const cy_cfg_addrvalue_t CYCODE cy_cfg_data_table[] = {
 267:cyfitter_cfg.c **** 			{0xE6u, 0x10u},
 268:cyfitter_cfg.c **** 			{0x62u, 0x04u},
 269:cyfitter_cfg.c **** 			{0x8Eu, 0x04u},
 270:cyfitter_cfg.c **** 			{0xD8u, 0x40u},
 271:cyfitter_cfg.c **** 			{0x18u, 0x80u},
 272:cyfitter_cfg.c **** 			{0x8Cu, 0x40u},
 273:cyfitter_cfg.c **** 			{0xC6u, 0x08u},
 274:cyfitter_cfg.c **** 			{0xE6u, 0x08u},
 275:cyfitter_cfg.c **** 		};
 276:cyfitter_cfg.c **** 
 277:cyfitter_cfg.c **** 
 278:cyfitter_cfg.c **** 
 279:cyfitter_cfg.c **** 		CYPACKED typedef struct {
 280:cyfitter_cfg.c **** 			void CYFAR *address;
 281:cyfitter_cfg.c **** 			uint16 size;
 282:cyfitter_cfg.c **** 		} CYPACKED_ATTR cfg_memset_t;
ARM GAS  /tmp/ccHGsyJi.s 			page 12


 283:cyfitter_cfg.c **** 
 284:cyfitter_cfg.c **** 		static const cfg_memset_t CYCODE cfg_memset_list [] = {
 285:cyfitter_cfg.c **** 			/* address, size */
 286:cyfitter_cfg.c **** 			{(void CYFAR *)(CYDEV_UDB_P0_U0_BASE), 1024u},
 287:cyfitter_cfg.c **** 			{(void CYFAR *)(CYDEV_UDB_DSI0_BASE), 1024u},
 288:cyfitter_cfg.c **** 		};
 289:cyfitter_cfg.c **** 
 290:cyfitter_cfg.c **** 		uint8 CYDATA i;
 291:cyfitter_cfg.c **** 
 292:cyfitter_cfg.c **** 		/* Zero out critical memory blocks before beginning configuration */
 293:cyfitter_cfg.c **** 		for (i = 0u; i < (sizeof(cfg_memset_list)/sizeof(cfg_memset_list[0])); i++)
 343              		.loc 1 293 0
 344 0074 FB1D     		add	r3, r7, #7
 345 0076 0022     		mov	r2, #0
 346 0078 1A70     		strb	r2, [r3]
 347 007a 23E0     		b	.L14
 348              	.L15:
 349              	.LBB4:
 294:cyfitter_cfg.c **** 		{
 295:cyfitter_cfg.c **** 			const cfg_memset_t CYCODE * CYDATA ms = &cfg_memset_list[i];
 350              		.loc 1 295 0 discriminator 2
 351 007c FB1D     		add	r3, r7, #7
 352 007e 1A78     		ldrb	r2, [r3]
 353 0080 131C     		mov	r3, r2
 354 0082 5B00     		lsl	r3, r3, #1
 355 0084 9B18     		add	r3, r3, r2
 356 0086 5B00     		lsl	r3, r3, #1
 357 0088 324A     		ldr	r2, .L16
 358 008a 9B18     		add	r3, r3, r2
 359 008c 3B60     		str	r3, [r7]
 296:cyfitter_cfg.c **** 			CYMEMZERO(ms->address, (size_t)(uint32)(ms->size));
 360              		.loc 1 296 0 discriminator 2
 361 008e 3B68     		ldr	r3, [r7]
 362 0090 1A78     		ldrb	r2, [r3]
 363 0092 5978     		ldrb	r1, [r3, #1]
 364 0094 0902     		lsl	r1, r1, #8
 365 0096 0A43     		orr	r2, r1
 366 0098 9978     		ldrb	r1, [r3, #2]
 367 009a 0904     		lsl	r1, r1, #16
 368 009c 0A43     		orr	r2, r1
 369 009e DB78     		ldrb	r3, [r3, #3]
 370 00a0 1B06     		lsl	r3, r3, #24
 371 00a2 1343     		orr	r3, r2
 372 00a4 1A1C     		mov	r2, r3
 373 00a6 3B68     		ldr	r3, [r7]
 374 00a8 1979     		ldrb	r1, [r3, #4]
 375 00aa 5B79     		ldrb	r3, [r3, #5]
 376 00ac 1B02     		lsl	r3, r3, #8
 377 00ae 0B43     		orr	r3, r1
 378 00b0 9BB2     		uxth	r3, r3
 379 00b2 101C     		mov	r0, r2
 380 00b4 191C     		mov	r1, r3
 381 00b6 FFF7FEFF 		bl	CYMEMZERO
 382              	.LBE4:
 293:cyfitter_cfg.c **** 		for (i = 0u; i < (sizeof(cfg_memset_list)/sizeof(cfg_memset_list[0])); i++)
 383              		.loc 1 293 0 discriminator 2
 384 00ba FB1D     		add	r3, r7, #7
ARM GAS  /tmp/ccHGsyJi.s 			page 13


 385 00bc 1A78     		ldrb	r2, [r3]
 386 00be FB1D     		add	r3, r7, #7
 387 00c0 0132     		add	r2, r2, #1
 388 00c2 1A70     		strb	r2, [r3]
 389              	.L14:
 293:cyfitter_cfg.c **** 		for (i = 0u; i < (sizeof(cfg_memset_list)/sizeof(cfg_memset_list[0])); i++)
 390              		.loc 1 293 0 is_stmt 0 discriminator 1
 391 00c4 FB1D     		add	r3, r7, #7
 392 00c6 1B78     		ldrb	r3, [r3]
 393 00c8 012B     		cmp	r3, #1
 394 00ca D7D9     		bls	.L15
 297:cyfitter_cfg.c **** 		}
 298:cyfitter_cfg.c **** 
 299:cyfitter_cfg.c **** 		cfg_write_bytes32(cy_cfg_addr_table, cy_cfg_data_table);
 395              		.loc 1 299 0 is_stmt 1
 396 00cc 224A     		ldr	r2, .L16+4
 397 00ce 234B     		ldr	r3, .L16+8
 398 00d0 101C     		mov	r0, r2
 399 00d2 191C     		mov	r1, r3
 400 00d4 FFF7FEFF 		bl	cfg_write_bytes32
 300:cyfitter_cfg.c **** 
 301:cyfitter_cfg.c **** 		/* HSIOM Starting address: CYDEV_HSIOM_BASE */
 302:cyfitter_cfg.c **** 		CY_SET_XTND_REG32((void CYFAR *)(CYREG_HSIOM_PORT_SEL1), 0x03000000u);
 401              		.loc 1 302 0
 402 00d8 214B     		ldr	r3, .L16+12
 403 00da C022     		mov	r2, #192
 404 00dc 9204     		lsl	r2, r2, #18
 405 00de 1A60     		str	r2, [r3]
 303:cyfitter_cfg.c **** 
 304:cyfitter_cfg.c **** 		/* FORCED_HSIOM Starting address: CYDEV_HSIOM_PORT_SEL3 */
 305:cyfitter_cfg.c **** 		CY_SET_XTND_REG32((void CYFAR *)(CYREG_HSIOM_PORT_SEL3), 0x00000000u);
 406              		.loc 1 305 0
 407 00e0 204B     		ldr	r3, .L16+16
 408 00e2 0022     		mov	r2, #0
 409 00e4 1A60     		str	r2, [r3]
 306:cyfitter_cfg.c **** 
 307:cyfitter_cfg.c **** 		/* IOPINS0_3 Starting address: CYDEV_PRT3_PC */
 308:cyfitter_cfg.c **** 		CY_SET_XTND_REG32((void CYFAR *)(CYREG_PRT3_PC), 0x00000000u);
 410              		.loc 1 308 0
 411 00e6 204B     		ldr	r3, .L16+20
 412 00e8 0022     		mov	r2, #0
 413 00ea 1A60     		str	r2, [r3]
 309:cyfitter_cfg.c **** 
 310:cyfitter_cfg.c **** 		/* UDB_PA_1 Starting address: CYDEV_UDB_PA1_BASE */
 311:cyfitter_cfg.c **** 		CY_SET_XTND_REG32((void CYFAR *)(CYDEV_UDB_PA1_BASE), 0x00990000u);
 414              		.loc 1 311 0
 415 00ec 1F4B     		ldr	r3, .L16+24
 416 00ee 9922     		mov	r2, #153
 417 00f0 1204     		lsl	r2, r2, #16
 418 00f2 1A60     		str	r2, [r3]
 312:cyfitter_cfg.c **** 		CY_SET_XTND_REG32((void CYFAR *)(CYREG_UDB_PA1_CFG8), 0x20000000u);
 419              		.loc 1 312 0
 420 00f4 1E4B     		ldr	r3, .L16+28
 421 00f6 8022     		mov	r2, #128
 422 00f8 9205     		lsl	r2, r2, #22
 423 00fa 1A60     		str	r2, [r3]
 313:cyfitter_cfg.c **** 
ARM GAS  /tmp/ccHGsyJi.s 			page 14


 314:cyfitter_cfg.c **** 		/* TCPWM_CNT0 Starting address: CYDEV_TCPWM_CNT0_TR_CTRL0 */
 315:cyfitter_cfg.c **** 		CY_SET_XTND_REG32((void CYFAR *)(CYREG_TCPWM_CNT0_TR_CTRL0), 0x00010010u);
 424              		.loc 1 315 0
 425 00fc 1D4B     		ldr	r3, .L16+32
 426 00fe 1E4A     		ldr	r2, .L16+36
 427 0100 1A60     		str	r2, [r3]
 316:cyfitter_cfg.c **** 
 317:cyfitter_cfg.c **** 		/* Enable digital routing */
 318:cyfitter_cfg.c **** 		CY_SET_XTND_REG8((void *)CYREG_UDB_UDBIF_BANK_CTL, CY_GET_XTND_REG8((void *)CYREG_UDB_UDBIF_BANK_
 428              		.loc 1 318 0
 429 0102 1E4B     		ldr	r3, .L16+40
 430 0104 1D4A     		ldr	r2, .L16+40
 431 0106 1278     		ldrb	r2, [r2]
 432 0108 D2B2     		uxtb	r2, r2
 433 010a 0221     		mov	r1, #2
 434 010c 0A43     		orr	r2, r1
 435 010e D2B2     		uxtb	r2, r2
 436 0110 1A70     		strb	r2, [r3]
 319:cyfitter_cfg.c **** 
 320:cyfitter_cfg.c **** 		/* Enable UDB array */
 321:cyfitter_cfg.c **** 		CY_SET_XTND_REG8((void *)CYREG_UDB_UDBIF_WAIT_CFG, (uint8)((CY_GET_XTND_REG8((void *)CYREG_UDB_UD
 437              		.loc 1 321 0
 438 0112 1B4B     		ldr	r3, .L16+44
 439 0114 1A4A     		ldr	r2, .L16+44
 440 0116 1278     		ldrb	r2, [r2]
 441 0118 D2B2     		uxtb	r2, r2
 442 011a 3C21     		mov	r1, #60
 443 011c 8A43     		bic	r2, r1
 444 011e D2B2     		uxtb	r2, r2
 445 0120 1421     		mov	r1, #20
 446 0122 0A43     		orr	r2, r1
 447 0124 D2B2     		uxtb	r2, r2
 448 0126 1A70     		strb	r2, [r3]
 322:cyfitter_cfg.c **** 		CY_SET_XTND_REG8((void *)CYREG_UDB_UDBIF_BANK_CTL, (uint8)(CY_GET_XTND_REG8((void *)CYREG_UDB_UDB
 449              		.loc 1 322 0
 450 0128 144B     		ldr	r3, .L16+40
 451 012a 144A     		ldr	r2, .L16+40
 452 012c 1278     		ldrb	r2, [r2]
 453 012e D2B2     		uxtb	r2, r2
 454 0130 1621     		mov	r1, #22
 455 0132 0A43     		orr	r2, r1
 456 0134 D2B2     		uxtb	r2, r2
 457 0136 1A70     		strb	r2, [r3]
 458              	.LBE3:
 323:cyfitter_cfg.c **** 	}
 324:cyfitter_cfg.c **** 
 325:cyfitter_cfg.c **** 	/* Perform second pass device configuration. These items must be configured in specific order afte
 326:cyfitter_cfg.c **** 	/* IOPINS0_1 Starting address: CYDEV_PRT1_DR */
 327:cyfitter_cfg.c **** 	CY_SET_XTND_REG32((void CYFAR *)(CYREG_PRT1_DR), 0x00000040u);
 459              		.loc 1 327 0
 460 0138 124B     		ldr	r3, .L16+48
 461 013a 4022     		mov	r2, #64
 462 013c 1A60     		str	r2, [r3]
 328:cyfitter_cfg.c **** 	CY_SET_XTND_REG32((void CYFAR *)(CYREG_PRT1_PC), 0x00180000u);
 463              		.loc 1 328 0
 464 013e 124B     		ldr	r3, .L16+52
 465 0140 C022     		mov	r2, #192
ARM GAS  /tmp/ccHGsyJi.s 			page 15


 466 0142 5203     		lsl	r2, r2, #13
 467 0144 1A60     		str	r2, [r3]
 329:cyfitter_cfg.c **** 
 330:cyfitter_cfg.c **** 	/* Setup clocks based on selections from Clock DWR */
 331:cyfitter_cfg.c **** 	ClockSetup();
 468              		.loc 1 331 0
 469 0146 FFF75BFF 		bl	ClockSetup
 332:cyfitter_cfg.c **** 
 333:cyfitter_cfg.c **** 	/* Perform basic analog initialization to defaults */
 334:cyfitter_cfg.c **** 	AnalogSetDefault();
 470              		.loc 1 334 0
 471 014a FFF7FEFF 		bl	AnalogSetDefault
 335:cyfitter_cfg.c **** 
 336:cyfitter_cfg.c **** }
 472              		.loc 1 336 0
 473 014e BD46     		mov	sp, r7
 474 0150 02B0     		add	sp, sp, #8
 475              		@ sp needed
 476 0152 80BD     		pop	{r7, pc}
 477              	.L17:
 478              		.align	2
 479              	.L16:
 480 0154 00000000 		.word	cfg_memset_list.4678
 481 0158 0C000000 		.word	cy_cfg_addr_table.4672
 482 015c 18000000 		.word	cy_cfg_data_table.4673
 483 0160 04000140 		.word	1073807364
 484 0164 0C000140 		.word	1073807372
 485 0168 08030440 		.word	1074004744
 486 016c 10500F40 		.word	1074745360
 487 0170 18500F40 		.word	1074745368
 488 0174 20010540 		.word	1074069792
 489 0178 10000100 		.word	65552
 490 017c 00700F40 		.word	1074753536
 491 0180 01700F40 		.word	1074753537
 492 0184 00010440 		.word	1074004224
 493 0188 08010440 		.word	1074004232
 494              		.cfi_endproc
 495              	.LFE6:
 496              		.size	cyfitter_cfg, .-cyfitter_cfg
 497              		.section	.rodata
 498              		.align	2
 499              		.type	cfg_memset_list.4678, %object
 500              		.size	cfg_memset_list.4678, 12
 501              	cfg_memset_list.4678:
 502 0000 00300F40 		.word	1074737152
 503 0004 0004     		.short	1024
 504 0006 00400F40 		.4byte	1074741248
 505 000a 0004     		.short	1024
 506              		.align	2
 507              		.type	cy_cfg_addr_table.4672, %object
 508              		.size	cy_cfg_addr_table.4672, 12
 509              	cy_cfg_addr_table.4672:
 510 000c 01330F40 		.word	1074737921
 511 0010 03410F40 		.word	1074741507
 512 0014 04430F40 		.word	1074742020
 513              		.align	2
 514              		.type	cy_cfg_data_table.4673, %object
ARM GAS  /tmp/ccHGsyJi.s 			page 16


 515              		.size	cy_cfg_data_table.4673, 16
 516              	cy_cfg_data_table.4673:
 517 0018 E6       		.byte	-26
 518 0019 10       		.byte	16
 519 001a 62       		.byte	98
 520 001b 04       		.byte	4
 521 001c 8E       		.byte	-114
 522 001d 04       		.byte	4
 523 001e D8       		.byte	-40
 524 001f 40       		.byte	64
 525 0020 18       		.byte	24
 526 0021 80       		.byte	-128
 527 0022 8C       		.byte	-116
 528 0023 40       		.byte	64
 529 0024 C6       		.byte	-58
 530 0025 08       		.byte	8
 531 0026 E6       		.byte	-26
 532 0027 08       		.byte	8
 533              		.text
 534              	.Letext0:
 535              		.file 2 "/opt/Freescale/KDS_3.0.0/toolchain/lib/gcc/arm-none-eabi/4.8.4/include/stddef.h"
 536              		.file 3 "cytypes.h"